target datalayout = "e-m:e-p270:32:32-p271:32:32-p272:64:64-i64:64-i128:128-f80:128-n8:16:32:64-S128"
target triple = "x86_64-pc-linux-gnu"

%struct._zend_array = type { %struct._zend_refcounted_h, %union.anon.6, i32, %union.anon.8, i32, i32, i32, i32, i64, ptr }
%struct._zend_refcounted_h = type { i32, %union.anon.5 }
%union.anon.5 = type { i32 }
%union.anon.6 = type { i32 }
%union.anon.8 = type { ptr }
%struct._zend_string = type { %struct._zend_refcounted_h, i64, i64, [1 x i8] }
%struct._zval_struct = type { %union._zend_value, %union.anon, %union.anon.2 }
%union._zend_value = type { i64 }
%union.anon = type { i32 }
%union.anon.2 = type { i32 }
%struct.anon.3 = type { i8, [3 x i8], i32, ptr, ptr, ptr, i32, i32, ptr, ptr, ptr, ptr, i32, ptr }
%struct.zend_type = type { ptr, i32 }
%struct._zend_internal_function = type { i8, [3 x i8], i32, ptr, ptr, ptr, i32, i32, ptr, ptr, ptr, ptr, i32, ptr, ptr, ptr, ptr, [6 x ptr] }
%struct._zend_internal_arg_info = type { ptr, %struct.zend_type, ptr }

; Function Attrs: alwaysinline nounwind uwtable
define internal i32 @zend_gc_delref(ptr noundef %0) #4 {
  %2 = alloca ptr, align 8
  store ptr %0, ptr %2, align 8, !tbaa !216
  %3 = load ptr, ptr %2, align 8, !tbaa !216
  %4 = getelementptr inbounds nuw %struct._zend_refcounted_h, ptr %3, i32 0, i32 0
  %5 = load i32, ptr %4, align 4, !tbaa !218
  %6 = icmp ugt i32 %5, 0
  call void @llvm.assume(i1 %6)
  br label %7

7:                                                ; preds = %1
  br label %8

8:                                                ; preds = %7
  %9 = load ptr, ptr %2, align 8, !tbaa !216
  %10 = getelementptr inbounds nuw %struct._zend_refcounted_h, ptr %9, i32 0, i32 0
  %11 = load i32, ptr %10, align 4, !tbaa !218
  %12 = add i32 %11, -1
  store i32 %12, ptr %10, align 4, !tbaa !218
  ret i32 %12
}

; Function Attrs: alwaysinline nounwind uwtable
define internal i32 @zval_gc_flags(i32 noundef %0) #4 {
  %2 = alloca i32, align 4
  store i32 %0, ptr %2, align 4, !tbaa !10
  %3 = load i32, ptr %2, align 4, !tbaa !10
  %4 = lshr i32 %3, 0
  %5 = and i32 %4, 1008
  ret i32 %5
}

; Function Attrs: alwaysinline nounwind uwtable
define internal void @zend_hash_release(ptr noundef %0) #4 {
  %2 = alloca ptr, align 8
  store ptr %0, ptr %2, align 8, !tbaa !86
  %3 = load ptr, ptr %2, align 8, !tbaa !86
  %4 = getelementptr inbounds nuw %struct._zend_array, ptr %3, i32 0, i32 0
  %5 = getelementptr inbounds nuw %struct._zend_refcounted_h, ptr %4, i32 0, i32 1
  %6 = load i32, ptr %5, align 4, !tbaa !9
  %7 = call i32 @zval_gc_flags(i32 noundef %6)
  %8 = and i32 %7, 64
  %9 = icmp ne i32 %8, 0
  br i1 %9, label %30, label %10

10:                                               ; preds = %1
  %11 = load ptr, ptr %2, align 8, !tbaa !86
  %12 = getelementptr inbounds nuw %struct._zend_array, ptr %11, i32 0, i32 0
  %13 = call i32 @zend_gc_delref(ptr noundef %12)
  %14 = icmp eq i32 %13, 0
  br i1 %14, label %15, label %29

15:                                               ; preds = %10
  %16 = load ptr, ptr %2, align 8, !tbaa !86
  call void @zend_hash_destroy(ptr noundef %16)
  %17 = load ptr, ptr %2, align 8, !tbaa !86
  %18 = getelementptr inbounds nuw %struct._zend_array, ptr %17, i32 0, i32 0
  %19 = getelementptr inbounds nuw %struct._zend_refcounted_h, ptr %18, i32 0, i32 1
  %20 = load i32, ptr %19, align 4, !tbaa !9
  %21 = call i32 @zval_gc_flags(i32 noundef %20)
  %22 = and i32 %21, 128
  %23 = icmp ne i32 %22, 0
  br i1 %23, label %24, label %26

24:                                               ; preds = %15
  %25 = load ptr, ptr %2, align 8, !tbaa !86
  call void @free(ptr noundef %25) #14
  br label %28

26:                                               ; preds = %15
  %27 = load ptr, ptr %2, align 8, !tbaa !86
  call void @_efree(ptr noundef %27)
  br label %28

28:                                               ; preds = %26, %24
  br label %29

29:                                               ; preds = %28, %10
  br label %30

30:                                               ; preds = %29, %1
  ret void
}

; Function Attrs: nounwind uwtable
define hidden void @zend_free_internal_arg_info(ptr noundef %0) #0 {
  %2 = alloca ptr, align 8
  %3 = alloca i32, align 4
  %4 = alloca i32, align 4
  %5 = alloca ptr, align 8
  store ptr %0, ptr %2, align 8, !tbaa !74
  %6 = load ptr, ptr %2, align 8, !tbaa !74
  %7 = getelementptr inbounds nuw %struct._zend_internal_function, ptr %6, i32 0, i32 2
  %8 = load i32, ptr %7, align 4, !tbaa !76
  %9 = and i32 %8, 8448
  %10 = icmp ne i32 %9, 0
  br i1 %10, label %11, label %53

11:                                               ; preds = %1
  %12 = load ptr, ptr %2, align 8, !tbaa !74
  %13 = getelementptr inbounds nuw %struct._zend_internal_function, ptr %12, i32 0, i32 8
  %14 = load ptr, ptr %13, align 8, !tbaa !80
  %15 = icmp ne ptr %14, null
  br i1 %15, label %16, label %53

16:                                               ; preds = %11
  call void @llvm.lifetime.start.p0(i64 4, ptr %3) #14
  call void @llvm.lifetime.start.p0(i64 4, ptr %4) #14
  %17 = load ptr, ptr %2, align 8, !tbaa !74
  %18 = getelementptr inbounds nuw %struct._zend_internal_function, ptr %17, i32 0, i32 6
  %19 = load i32, ptr %18, align 8, !tbaa !81
  %20 = add i32 %19, 1
  store i32 %20, ptr %4, align 4, !tbaa !10
  call void @llvm.lifetime.start.p0(i64 8, ptr %5) #14
  %21 = load ptr, ptr %2, align 8, !tbaa !74
  %22 = getelementptr inbounds nuw %struct._zend_internal_function, ptr %21, i32 0, i32 8
  %23 = load ptr, ptr %22, align 8, !tbaa !80
  %24 = getelementptr inbounds %struct._zend_internal_arg_info, ptr %23, i64 -1
  store ptr %24, ptr %5, align 8, !tbaa !82
  %25 = load ptr, ptr %2, align 8, !tbaa !74
  %26 = getelementptr inbounds nuw %struct._zend_internal_function, ptr %25, i32 0, i32 2
  %27 = load i32, ptr %26, align 4, !tbaa !76
  %28 = and i32 %27, 16384
  %29 = icmp ne i32 %28, 0
  br i1 %29, label %30, label %33

30:                                               ; preds = %16
  %31 = load i32, ptr %4, align 4, !tbaa !10
  %32 = add i32 %31, 1
  store i32 %32, ptr %4, align 4, !tbaa !10
  br label %33

33:                                               ; preds = %30, %16
  store i32 0, ptr %3, align 4, !tbaa !10
  br label %34

34:                                               ; preds = %48, %33
  %35 = load i32, ptr %3, align 4, !tbaa !10
  %36 = load i32, ptr %4, align 4, !tbaa !10
  %37 = icmp ult i32 %35, %36
  br i1 %37, label %38, label %51

38:                                               ; preds = %34
  %39 = load ptr, ptr %5, align 8, !tbaa !82
  %40 = load i32, ptr %3, align 4, !tbaa !10
  %41 = zext i32 %40 to i64
  %42 = getelementptr inbounds nuw %struct._zend_internal_arg_info, ptr %39, i64 %41
  %43 = getelementptr inbounds nuw %struct._zend_internal_arg_info, ptr %42, i32 0, i32 1
  %44 = getelementptr inbounds nuw { ptr, i32 }, ptr %43, i32 0, i32 0
  %45 = load ptr, ptr %44, align 8
  %46 = getelementptr inbounds nuw { ptr, i32 }, ptr %43, i32 0, i32 1
  %47 = load i32, ptr %46, align 8
  call void @zend_type_release(ptr %45, i32 %47, i1 noundef zeroext true)
  br label %48

48:                                               ; preds = %38
  %49 = load i32, ptr %3, align 4, !tbaa !10
  %50 = add i32 %49, 1
  store i32 %50, ptr %3, align 4, !tbaa !10
  br label %34

51:                                               ; preds = %34
  %52 = load ptr, ptr %5, align 8, !tbaa !82
  call void @free(ptr noundef %52) #14
  call void @llvm.lifetime.end.p0(i64 8, ptr %5) #14
  call void @llvm.lifetime.end.p0(i64 4, ptr %4) #14
  call void @llvm.lifetime.end.p0(i64 4, ptr %3) #14
  br label %53

53:                                               ; preds = %51, %11, %1
  ret void
}

; Function Attrs: alwaysinline nounwind uwtable
define internal void @zend_string_release_ex(ptr noundef %0, i1 noundef zeroext %1) #4 {
  %3 = alloca ptr, align 8
  %4 = alloca i8, align 1
  store ptr %0, ptr %3, align 8, !tbaa !56
  %5 = zext i1 %1 to i8
  store i8 %5, ptr %4, align 1, !tbaa !64
  %6 = load ptr, ptr %3, align 8, !tbaa !56
  %7 = getelementptr inbounds nuw %struct._zend_string, ptr %6, i32 0, i32 0
  %8 = getelementptr inbounds nuw %struct._zend_refcounted_h, ptr %7, i32 0, i32 1
  %9 = load i32, ptr %8, align 4, !tbaa !9
  %10 = call i32 @zval_gc_flags(i32 noundef %9)
  %11 = and i32 %10, 64
  %12 = icmp ne i32 %11, 0
  br i1 %12, label %27, label %13

13:                                               ; preds = %2
  %14 = load ptr, ptr %3, align 8, !tbaa !56
  %15 = getelementptr inbounds nuw %struct._zend_string, ptr %14, i32 0, i32 0
  %16 = call i32 @zend_gc_delref(ptr noundef %15)
  %17 = icmp eq i32 %16, 0
  br i1 %17, label %18, label %26

18:                                               ; preds = %13
  %19 = load i8, ptr %4, align 1, !tbaa !64, !range !72, !noundef !73
  %20 = trunc i8 %19 to i1
  br i1 %20, label %21, label %23

21:                                               ; preds = %18
  %22 = load ptr, ptr %3, align 8, !tbaa !56
  call void @free(ptr noundef %22) #14
  br label %25

23:                                               ; preds = %18
  %24 = load ptr, ptr %3, align 8, !tbaa !56
  call void @_efree(ptr noundef %24)
  br label %25

25:                                               ; preds = %23, %21
  br label %26

26:                                               ; preds = %25, %13
  br label %27

27:                                               ; preds = %26, %2
  ret void
}

; Function Attrs: nounwind uwtable
define dso_local void @zend_function_dtor(ptr noundef %0) #0 {
  %2 = alloca ptr, align 8
  %3 = alloca ptr, align 8
  store ptr %0, ptr %2, align 8, !tbaa !63
  call void @llvm.lifetime.start.p0(i64 8, ptr %3) #14
  %4 = load ptr, ptr %2, align 8, !tbaa !63
  %5 = getelementptr inbounds nuw %struct._zval_struct, ptr %4, i32 0, i32 0
  %6 = load ptr, ptr %5, align 8, !tbaa !9
  store ptr %6, ptr %3, align 8, !tbaa !62
  %7 = load ptr, ptr %3, align 8, !tbaa !62
  %8 = load i8, ptr %7, align 8, !tbaa !9
  %9 = zext i8 %8 to i32
  %10 = icmp eq i32 %9, 2
  br i1 %10, label %11, label %17

11:                                               ; preds = %1
  %12 = load ptr, ptr %3, align 8, !tbaa !62
  %13 = getelementptr inbounds nuw %struct.anon.3, ptr %12, i32 0, i32 3
  %14 = load ptr, ptr %13, align 8, !tbaa !9
  %15 = icmp ne ptr %14, null
  call void @llvm.assume(i1 %15)
  %16 = load ptr, ptr %3, align 8, !tbaa !62
  call void @destroy_op_array(ptr noundef %16)
  br label %66

17:                                               ; preds = %1
  %18 = load ptr, ptr %3, align 8, !tbaa !62
  %19 = load i8, ptr %18, align 8, !tbaa !9
  %20 = zext i8 %19 to i32
  %21 = icmp eq i32 %20, 1
  call void @llvm.assume(i1 %21)
  %22 = load ptr, ptr %3, align 8, !tbaa !62
  %23 = getelementptr inbounds nuw %struct.anon.3, ptr %22, i32 0, i32 3
  %24 = load ptr, ptr %23, align 8, !tbaa !9
  %25 = icmp ne ptr %24, null
  call void @llvm.assume(i1 %25)
  %26 = load ptr, ptr %3, align 8, !tbaa !62
  %27 = getelementptr inbounds nuw %struct.anon.3, ptr %26, i32 0, i32 3
  %28 = load ptr, ptr %27, align 8, !tbaa !9
  call void @zend_string_release_ex(ptr noundef %28, i1 noundef zeroext true)
  %29 = load ptr, ptr %3, align 8, !tbaa !62
  %30 = getelementptr inbounds nuw %struct.anon.3, ptr %29, i32 0, i32 4
  %31 = load ptr, ptr %30, align 8, !tbaa !9
  %32 = icmp ne ptr %31, null
  br i1 %32, label %46, label %33

33:                                               ; preds = %17
  %34 = load ptr, ptr %3, align 8, !tbaa !62
  call void @zend_free_internal_arg_info(ptr noundef %34)
  %35 = load ptr, ptr %3, align 8, !tbaa !62
  %36 = getelementptr inbounds nuw %struct.anon.3, ptr %35, i32 0, i32 9
  %37 = load ptr, ptr %36, align 8, !tbaa !9
  %38 = icmp ne ptr %37, null
  br i1 %38, label %39, label %45

39:                                               ; preds = %33
  %40 = load ptr, ptr %3, align 8, !tbaa !62
  %41 = getelementptr inbounds nuw %struct.anon.3, ptr %40, i32 0, i32 9
  %42 = load ptr, ptr %41, align 8, !tbaa !9
  call void @zend_hash_release(ptr noundef %42)
  %43 = load ptr, ptr %3, align 8, !tbaa !62
  %44 = getelementptr inbounds nuw %struct.anon.3, ptr %43, i32 0, i32 9
  store ptr null, ptr %44, align 8, !tbaa !9
  br label %45

45:                                               ; preds = %39, %33
  br label %46

46:                                               ; preds = %45, %17
  %47 = load ptr, ptr %3, align 8, !tbaa !62
  %48 = getelementptr inbounds nuw %struct.anon.3, ptr %47, i32 0, i32 11
  %49 = load ptr, ptr %48, align 8, !tbaa !9
  %50 = icmp ne ptr %49, null
  br i1 %50, label %51, label %57

51:                                               ; preds = %46
  %52 = load ptr, ptr %3, align 8, !tbaa !62
  %53 = getelementptr inbounds nuw %struct.anon.3, ptr %52, i32 0, i32 11
  %54 = load ptr, ptr %53, align 8, !tbaa !9
  call void @zend_string_release_ex(ptr noundef %54, i1 noundef zeroext true)
  %55 = load ptr, ptr %3, align 8, !tbaa !62
  %56 = getelementptr inbounds nuw %struct.anon.3, ptr %55, i32 0, i32 11
  store ptr null, ptr %56, align 8, !tbaa !9
  br label %57

57:                                               ; preds = %51, %46
  %58 = load ptr, ptr %3, align 8, !tbaa !62
  %59 = getelementptr inbounds nuw %struct.anon.3, ptr %58, i32 0, i32 2
  %60 = load i32, ptr %59, align 4, !tbaa !9
  %61 = and i32 %60, 33554432
  %62 = icmp ne i32 %61, 0
  br i1 %62, label %65, label %63

63:                                               ; preds = %57
  %64 = load ptr, ptr %3, align 8, !tbaa !62
  call void @free(ptr noundef %64) #14
  br label %65

65:                                               ; preds = %63, %57
  br label %66

66:                                               ; preds = %65, %11
  call void @llvm.lifetime.end.p0(i64 8, ptr %3) #14
  ret void
}