; Function Attrs: nounwind uwtable
define dso_local void @zend_function_dtor(ptr noundef readonly captures(none) %0) local_unnamed_addr #0 {
  %2 = load ptr, ptr %0, align 8, !tbaa !23
  %3 = load i8, ptr %2, align 8, !tbaa !23
  %4 = icmp eq i8 %3, 2
  br i1 %4, label %5, label %9

5:                                                ; preds = %1
  %6 = getelementptr inbounds nuw i8, ptr %2, i64 8
  %7 = load ptr, ptr %6, align 8, !tbaa !23
  %8 = icmp ne ptr %7, null
  tail call void @llvm.assume(i1 %8)
  tail call void @destroy_op_array(ptr noundef nonnull %2)
  br label %74

9:                                                ; preds = %1
  %10 = icmp eq i8 %3, 1
  tail call void @llvm.assume(i1 %10)
  %11 = getelementptr inbounds nuw i8, ptr %2, i64 8
  %12 = load ptr, ptr %11, align 8, !tbaa !23, !nonnull !41, !noundef !41
  %13 = getelementptr inbounds nuw i8, ptr %12, i64 4
  %14 = load i32, ptr %13, align 4, !tbaa !23
  %15 = and i32 %14, 64
  %.not.i = icmp eq i32 %15, 0
  br i1 %.not.i, label %16, label %zend_string_release_ex.exit

16:                                               ; preds = %9
  %17 = load i32, ptr %12, align 4, !tbaa !32
  %18 = icmp ne i32 %17, 0
  tail call void @llvm.assume(i1 %18)
  %19 = add i32 %17, -1
  store i32 %19, ptr %12, align 4, !tbaa !32
  %20 = icmp eq i32 %19, 0
  br i1 %20, label %21, label %zend_string_release_ex.exit

21:                                               ; preds = %16
  tail call void @free(ptr noundef nonnull %12) #14
  br label %zend_string_release_ex.exit

zend_string_release_ex.exit:                      ; preds = %9, %16, %21
  %22 = getelementptr inbounds nuw i8, ptr %2, i64 16
  %23 = load ptr, ptr %22, align 8, !tbaa !23
  %.not = icmp eq ptr %23, null
  br i1 %.not, label %24, label %56

24:                                               ; preds = %zend_string_release_ex.exit
  %25 = getelementptr inbounds nuw i8, ptr %2, i64 4
  %26 = load i32, ptr %25, align 4, !tbaa !42
  %27 = and i32 %26, 8448
  %.not.i25 = icmp eq i32 %27, 0
  br i1 %.not.i25, label %zend_free_internal_arg_info.exit, label %28

28:                                               ; preds = %24
  %29 = getelementptr inbounds nuw i8, ptr %2, i64 40
  %30 = load ptr, ptr %29, align 8, !tbaa !46
  %.not13.i = icmp eq ptr %30, null
  br i1 %.not13.i, label %zend_free_internal_arg_info.exit, label %31

31:                                               ; preds = %28
  %32 = getelementptr inbounds nuw i8, ptr %2, i64 32
  %33 = load i32, ptr %32, align 8, !tbaa !47
  %34 = getelementptr inbounds i8, ptr %30, i64 -32
  %35 = and i32 %26, 16384
  %.not14.i = icmp eq i32 %35, 0
  %spec.select.v.i = select i1 %.not14.i, i32 1, i32 2
  %spec.select.i = add i32 %33, %spec.select.v.i
  %.not16.i = icmp eq i32 %spec.select.i, 0
  br i1 %.not16.i, label %._crit_edge.i, label %.lr.ph.preheader.i

.lr.ph.preheader.i:                               ; preds = %31
  %wide.trip.count.i = zext i32 %spec.select.i to i64
  br label %.lr.ph.i

.lr.ph.i:                                         ; preds = %.lr.ph.i, %.lr.ph.preheader.i
  %indvars.iv.i = phi i64 [ 0, %.lr.ph.preheader.i ], [ %indvars.iv.next.i, %.lr.ph.i ]
  %.idx.i = shl nuw nsw i64 %indvars.iv.i, 5
  %.offs.i = or disjoint i64 %.idx.i, 8
  %36 = getelementptr inbounds nuw i8, ptr %34, i64 %.offs.i
  %37 = load ptr, ptr %36, align 8
  %38 = getelementptr inbounds nuw i8, ptr %36, i64 8
  %39 = load i32, ptr %38, align 8
  tail call void @zend_type_release(ptr %37, i32 %39, i1 noundef zeroext true)
  %indvars.iv.next.i = add nuw nsw i64 %indvars.iv.i, 1
  %exitcond.not.i = icmp eq i64 %indvars.iv.next.i, %wide.trip.count.i
  br i1 %exitcond.not.i, label %._crit_edge.i, label %.lr.ph.i

._crit_edge.i:                                    ; preds = %.lr.ph.i, %31
  tail call void @free(ptr noundef nonnull %34) #14
  br label %zend_free_internal_arg_info.exit

zend_free_internal_arg_info.exit:                 ; preds = %24, %28, %._crit_edge.i
  %40 = getelementptr inbounds nuw i8, ptr %2, i64 48
  %41 = load ptr, ptr %40, align 8, !tbaa !23
  %.not19 = icmp eq ptr %41, null
  br i1 %.not19, label %56, label %42

42:                                               ; preds = %zend_free_internal_arg_info.exit
  %43 = getelementptr inbounds nuw i8, ptr %41, i64 4
  %44 = load i32, ptr %43, align 4, !tbaa !23
  %45 = and i32 %44, 64
  %.not.i24 = icmp eq i32 %45, 0
  br i1 %.not.i24, label %46, label %zend_hash_release.exit

46:                                               ; preds = %42
  %47 = load i32, ptr %41, align 4, !tbaa !32
  %48 = icmp ne i32 %47, 0
  tail call void @llvm.assume(i1 %48)
  %49 = add i32 %47, -1
  store i32 %49, ptr %41, align 4, !tbaa !32
  %50 = icmp eq i32 %49, 0
  br i1 %50, label %51, label %zend_hash_release.exit

51:                                               ; preds = %46
  tail call void @zend_hash_destroy(ptr noundef nonnull %41) #14
  %52 = load i32, ptr %43, align 4, !tbaa !23
  %53 = and i32 %52, 128
  %.not6.i = icmp eq i32 %53, 0
  br i1 %.not6.i, label %55, label %54

54:                                               ; preds = %51
  tail call void @free(ptr noundef nonnull %41) #14
  br label %zend_hash_release.exit

55:                                               ; preds = %51
  tail call void @_efree(ptr noundef nonnull %41) #14
  br label %zend_hash_release.exit

zend_hash_release.exit:                           ; preds = %42, %46, %54, %55
  store ptr null, ptr %40, align 8, !tbaa !23
  br label %56

56:                                               ; preds = %zend_free_internal_arg_info.exit, %zend_hash_release.exit, %zend_string_release_ex.exit
  %57 = getelementptr inbounds nuw i8, ptr %2, i64 64
  %58 = load ptr, ptr %57, align 8, !tbaa !23
  %.not20 = icmp eq ptr %58, null
  br i1 %.not20, label %69, label %59

59:                                               ; preds = %56
  %60 = getelementptr inbounds nuw i8, ptr %58, i64 4
  %61 = load i32, ptr %60, align 4, !tbaa !23
  %62 = and i32 %61, 64
  %.not.i22 = icmp eq i32 %62, 0
  br i1 %.not.i22, label %63, label %zend_string_release_ex.exit23

63:                                               ; preds = %59
  %64 = load i32, ptr %58, align 4, !tbaa !32
  %65 = icmp ne i32 %64, 0
  tail call void @llvm.assume(i1 %65)
  %66 = add i32 %64, -1
  store i32 %66, ptr %58, align 4, !tbaa !32
  %67 = icmp eq i32 %66, 0
  br i1 %67, label %68, label %zend_string_release_ex.exit23

68:                                               ; preds = %63
  tail call void @free(ptr noundef nonnull %58) #14
  br label %zend_string_release_ex.exit23

zend_string_release_ex.exit23:                    ; preds = %59, %63, %68
  store ptr null, ptr %57, align 8, !tbaa !23
  br label %69

69:                                               ; preds = %zend_string_release_ex.exit23, %56
  %70 = getelementptr inbounds nuw i8, ptr %2, i64 4
  %71 = load i32, ptr %70, align 4, !tbaa !23
  %72 = and i32 %71, 33554432
  %.not21 = icmp eq i32 %72, 0
  br i1 %.not21, label %73, label %74

73:                                               ; preds = %69
  tail call void @free(ptr noundef nonnull %2) #14
  br label %74

74:                                               ; preds = %69, %73, %5
  ret void
}